; Function Attrs: nounwind sspstrong uwtable
define dso_local void @qdev_connect_gpio_out(ptr noundef %dev, i32 noundef %n, ptr noundef %input_pin) local_unnamed_addr #0 {
entry:
  %call.i = tail call noalias ptr (ptr, ...) @g_strdup_printf(ptr noundef nonnull @.str.8, ptr noundef nonnull @.str.5, i32 noundef %n) #5
  %tobool1.not.i = icmp eq ptr %input_pin, null
  br i1 %tobool1.not.i, label %qdev_connect_gpio_out_named.exit, label %land.lhs.true.i

land.lhs.true.i:                                  ; preds = %entry
  %parent.i = getelementptr inbounds nuw i8, ptr %input_pin, i64 32
  %0 = load ptr, ptr %parent.i, align 8
  %tobool2.not.i = icmp eq ptr %0, null
  br i1 %tobool2.not.i, label %if.then.i, label %qdev_connect_gpio_out_named.exit

if.then.i:                                        ; preds = %land.lhs.true.i
  %call3.i = tail call ptr @qdev_get_machine() #5
  %call4.i = tail call ptr @container_get(ptr noundef %call3.i, ptr noundef nonnull @.str.9) #5
  %call5.i = tail call ptr @object_property_add_child(ptr noundef %call4.i, ptr noundef nonnull @.str.10, ptr noundef nonnull %input_pin) #5
  br label %qdev_connect_gpio_out_named.exit

qdev_connect_gpio_out_named.exit:                 ; preds = %entry, %land.lhs.true.i, %if.then.i
  %call6.i = tail call zeroext i1 @object_property_set_link(ptr noundef %dev, ptr noundef %call.i, ptr noundef %input_pin, ptr noundef nonnull @error_abort) #5
  tail call void @g_free(ptr noundef %call.i) #5
  ret void
}